target datalayout = "e-m:e-p270:32:32-p271:32:32-p272:64:64-i64:64-i128:128-f80:128-n8:16:32:64-S128"
target triple = "x86_64-pc-linux-gnu"

; Function Attrs: nounwind uwtable
define internal ptr @replace_token(ptr noundef %0, ptr noundef %1, ptr noundef %2) #0 {
  %4 = alloca ptr, align 8
  %5 = alloca ptr, align 8
  %6 = alloca ptr, align 8
  %7 = alloca i32, align 4
  %8 = alloca i32, align 4
  %9 = alloca i32, align 4
  %10 = alloca i32, align 4
  %11 = alloca i32, align 4
  %12 = alloca ptr, align 8
  %13 = alloca ptr, align 8
  %14 = alloca i32, align 4
  store ptr %0, ptr %4, align 8
  store ptr %1, ptr %5, align 8
  store ptr %2, ptr %6, align 8
  call void @llvm.lifetime.start.p0(i64 4, ptr %7) #10
  call void @llvm.lifetime.start.p0(i64 4, ptr %8) #10
  call void @llvm.lifetime.start.p0(i64 4, ptr %9) #10
  %15 = load ptr, ptr %5, align 8
  %16 = call i64 @strlen(ptr noundef %15) #11
  %17 = trunc i64 %16 to i32
  store i32 %17, ptr %7, align 4
  %18 = load ptr, ptr %6, align 8
  %19 = call i64 @strlen(ptr noundef %18) #11
  %20 = trunc i64 %19 to i32
  store i32 %20, ptr %8, align 4
  %21 = load i32, ptr %8, align 4
  %22 = load i32, ptr %7, align 4
  %23 = sub i32 %21, %22
  store i32 %23, ptr %9, align 4
  call void @llvm.lifetime.start.p0(i64 4, ptr %10) #10
  store i32 0, ptr %10, align 4
  br label %24

24:                                               ; preds = %111, %3
  %25 = load ptr, ptr %4, align 8
  %26 = load i32, ptr %10, align 4
  %27 = sext i32 %26 to i64
  %28 = getelementptr inbounds ptr, ptr %25, i64 %27
  %29 = load ptr, ptr %28, align 8
  %30 = icmp ne ptr %29, null
  br i1 %30, label %32, label %31

31:                                               ; preds = %24
  store i32 2, ptr %11, align 4
  call void @llvm.lifetime.end.p0(i64 4, ptr %10) #10
  br label %114

32:                                               ; preds = %24
  call void @llvm.lifetime.start.p0(i64 8, ptr %12) #10
  call void @llvm.lifetime.start.p0(i64 8, ptr %13) #10
  call void @llvm.lifetime.start.p0(i64 4, ptr %14) #10
  %33 = load ptr, ptr %4, align 8
  %34 = load i32, ptr %10, align 4
  %35 = sext i32 %34 to i64
  %36 = getelementptr inbounds ptr, ptr %33, i64 %35
  %37 = load ptr, ptr %36, align 8
  %38 = load ptr, ptr %5, align 8
  %39 = call ptr @strstr(ptr noundef %37, ptr noundef %38) #11
  store ptr %39, ptr %12, align 8
  %40 = icmp eq ptr %39, null
  br i1 %40, label %41, label %42

41:                                               ; preds = %32
  store i32 4, ptr %11, align 4
  br label %108

42:                                               ; preds = %32
  %43 = load ptr, ptr %4, align 8
  %44 = load i32, ptr %10, align 4
  %45 = sext i32 %44 to i64
  %46 = getelementptr inbounds ptr, ptr %43, i64 %45
  %47 = load ptr, ptr %46, align 8
  %48 = call i64 @strlen(ptr noundef %47) #11
  %49 = load i32, ptr %9, align 4
  %50 = sext i32 %49 to i64
  %51 = add i64 %48, %50
  %52 = add i64 %51, 1
  %53 = call ptr @pg_malloc(i64 noundef %52)
  store ptr %53, ptr %13, align 8
  %54 = load ptr, ptr %12, align 8
  %55 = load ptr, ptr %4, align 8
  %56 = load i32, ptr %10, align 4
  %57 = sext i32 %56 to i64
  %58 = getelementptr inbounds ptr, ptr %55, i64 %57
  %59 = load ptr, ptr %58, align 8
  %60 = ptrtoint ptr %54 to i64
  %61 = ptrtoint ptr %59 to i64
  %62 = sub i64 %60, %61
  %63 = trunc i64 %62 to i32
  store i32 %63, ptr %14, align 4
  %64 = load ptr, ptr %13, align 8
  %65 = load ptr, ptr %4, align 8
  %66 = load i32, ptr %10, align 4
  %67 = sext i32 %66 to i64
  %68 = getelementptr inbounds ptr, ptr %65, i64 %67
  %69 = load ptr, ptr %68, align 8
  %70 = load i32, ptr %14, align 4
  %71 = sext i32 %70 to i64
  call void @llvm.memcpy.p0.p0.i64(ptr align 1 %64, ptr align 1 %69, i64 %71, i1 false)
  %72 = load ptr, ptr %13, align 8
  %73 = load i32, ptr %14, align 4
  %74 = sext i32 %73 to i64
  %75 = getelementptr inbounds i8, ptr %72, i64 %74
  %76 = load ptr, ptr %6, align 8
  %77 = load i32, ptr %8, align 4
  %78 = sext i32 %77 to i64
  call void @llvm.memcpy.p0.p0.i64(ptr align 1 %75, ptr align 1 %76, i64 %78, i1 false)
  %79 = load ptr, ptr %13, align 8
  %80 = load i32, ptr %14, align 4
  %81 = sext i32 %80 to i64
  %82 = getelementptr inbounds i8, ptr %79, i64 %81
  %83 = load i32, ptr %8, align 4
  %84 = sext i32 %83 to i64
  %85 = getelementptr inbounds i8, ptr %82, i64 %84
  %86 = load ptr, ptr %4, align 8
  %87 = load i32, ptr %10, align 4
  %88 = sext i32 %87 to i64
  %89 = getelementptr inbounds ptr, ptr %86, i64 %88
  %90 = load ptr, ptr %89, align 8
  %91 = load i32, ptr %14, align 4
  %92 = sext i32 %91 to i64
  %93 = getelementptr inbounds i8, ptr %90, i64 %92
  %94 = load i32, ptr %7, align 4
  %95 = sext i32 %94 to i64
  %96 = getelementptr inbounds i8, ptr %93, i64 %95
  %97 = call ptr @strcpy(ptr noundef %85, ptr noundef %96) #10
  %98 = load ptr, ptr %4, align 8
  %99 = load i32, ptr %10, align 4
  %100 = sext i32 %99 to i64
  %101 = getelementptr inbounds ptr, ptr %98, i64 %100
  %102 = load ptr, ptr %101, align 8
  call void @free(ptr noundef %102) #10
  %103 = load ptr, ptr %13, align 8
  %104 = load ptr, ptr %4, align 8
  %105 = load i32, ptr %10, align 4
  %106 = sext i32 %105 to i64
  %107 = getelementptr inbounds ptr, ptr %104, i64 %106
  store ptr %103, ptr %107, align 8
  store i32 0, ptr %11, align 4
  br label %108

108:                                              ; preds = %42, %41
  call void @llvm.lifetime.end.p0(i64 4, ptr %14) #10
  call void @llvm.lifetime.end.p0(i64 8, ptr %13) #10
  call void @llvm.lifetime.end.p0(i64 8, ptr %12) #10
  %109 = load i32, ptr %11, align 4
  switch i32 %109, label %116 [
    i32 0, label %110
    i32 4, label %111
  ]

110:                                              ; preds = %108
  br label %111

111:                                              ; preds = %110, %108
  %112 = load i32, ptr %10, align 4
  %113 = add i32 %112, 1
  store i32 %113, ptr %10, align 4
  br label %24, !llvm.loop !29

114:                                              ; preds = %31
  %115 = load ptr, ptr %4, align 8
  store i32 1, ptr %11, align 4
  call void @llvm.lifetime.end.p0(i64 4, ptr %9) #10
  call void @llvm.lifetime.end.p0(i64 4, ptr %8) #10
  call void @llvm.lifetime.end.p0(i64 4, ptr %7) #10
  ret ptr %115

116:                                              ; preds = %108
  unreachable
}