; Function Attrs: nounwind uwtable
define internal fastcc noundef ptr @replace_token(ptr noundef returned captures(ret: address, provenance) %0, ptr noundef readonly captures(none) %1, ptr noundef readonly captures(none) %2) unnamed_addr #0 {
  %4 = load ptr, ptr %0, align 8
  %.not41 = icmp eq ptr %4, null
  br i1 %.not41, label %._crit_edge, label %.lr.ph

.lr.ph:                                           ; preds = %3
  %5 = tail call i64 @strlen(ptr noundef nonnull dereferenceable(1) %2) #21
  %6 = tail call i64 @strlen(ptr noundef nonnull dereferenceable(1) %1) #21
  %7 = sub i64 %5, %6
  %sext = shl i64 %7, 32
  %8 = ashr exact i64 %sext, 32
  %9 = add nsw i64 %8, 1
  %sext39 = shl i64 %5, 32
  %10 = ashr exact i64 %sext39, 32
  %sext40 = shl i64 %6, 32
  %11 = ashr exact i64 %sext40, 32
  br label %12

._crit_edge:                                      ; preds = %33, %3
  ret ptr %0

12:                                               ; preds = %.lr.ph, %33
  %13 = phi ptr [ %4, %.lr.ph ], [ %37, %33 ]
  %14 = phi ptr [ %0, %.lr.ph ], [ %36, %33 ]
  %.042 = phi i32 [ 0, %.lr.ph ], [ %34, %33 ]
  %15 = tail call ptr @strstr(ptr noundef nonnull dereferenceable(1) %13, ptr noundef nonnull dereferenceable(1) %1) #21
  %16 = icmp eq ptr %15, null
  br i1 %16, label %33, label %17

17:                                               ; preds = %12
  %18 = tail call i64 @strlen(ptr noundef nonnull dereferenceable(1) %13) #21
  %19 = add i64 %9, %18
  %20 = tail call ptr @pg_malloc(i64 noundef %19) #19
  %21 = load ptr, ptr %14, align 8
  %22 = ptrtoint ptr %15 to i64
  %23 = ptrtoint ptr %21 to i64
  %24 = sub i64 %22, %23
  %sext38 = shl i64 %24, 32
  %25 = ashr exact i64 %sext38, 32
  tail call void @llvm.memcpy.p0.p0.i64(ptr align 1 %20, ptr align 1 %21, i64 %25, i1 false)
  %26 = getelementptr inbounds i8, ptr %20, i64 %25
  tail call void @llvm.memcpy.p0.p0.i64(ptr align 1 %26, ptr nonnull align 1 %2, i64 %10, i1 false)
  %27 = getelementptr inbounds i8, ptr %26, i64 %10
  %28 = load ptr, ptr %14, align 8
  %29 = getelementptr inbounds i8, ptr %28, i64 %25
  %30 = getelementptr inbounds i8, ptr %29, i64 %11
  %31 = tail call ptr @strcpy(ptr noundef nonnull dereferenceable(1) %27, ptr noundef nonnull dereferenceable(1) %30) #19
  %32 = load ptr, ptr %14, align 8
  tail call void @free(ptr noundef %32) #19
  store ptr %20, ptr %14, align 8
  br label %33

33:                                               ; preds = %12, %17
  %34 = add i32 %.042, 1
  %35 = sext i32 %34 to i64
  %36 = getelementptr inbounds ptr, ptr %0, i64 %35
  %37 = load ptr, ptr %36, align 8
  %.not = icmp eq ptr %37, null
  br i1 %.not, label %._crit_edge, label %12, !llvm.loop !26
}